target datalayout = "e-m:e-p270:32:32-p271:32:32-p272:64:64-i64:64-i128:128-f80:128-n8:16:32:64-S128"
target triple = "x86_64-pc-linux-gnu"

; Function Attrs: inlinehint nounwind uwtable
define internal i64 @mbedtls_ct_uint_lt(i64 noundef %0, i64 noundef %1) #3 {
  %3 = alloca i64, align 8
  %4 = alloca i64, align 8
  %5 = alloca i64, align 8
  store i64 %0, ptr %3, align 8, !tbaa !3
  store i64 %1, ptr %4, align 8, !tbaa !3
  call void @llvm.lifetime.start.p0(i64 8, ptr %5) #7
  %6 = load i64, ptr %3, align 8, !tbaa !3
  %7 = load i64, ptr %4, align 8, !tbaa !3
  %8 = call { i64, i64, i64 } asm sideeffect "mov $1, $0                                 \0A\09xor $2, $0                                 \0A\09sub $2, $1                                 \0A\09and $0, $2                                 \0A\09not $0                                       \0A\09and $0, $1                                 \0A\09or $2, $1                                  \0A\09sar $$63, $1                                  \0A\09", "=&{ax},=&{di},=&{si},1,2,~{dirflag},~{fpsr},~{flags}"(i64 %6, i64 %7) #7, !srcloc !19
  %9 = extractvalue { i64, i64, i64 } %8, 0
  %10 = extractvalue { i64, i64, i64 } %8, 1
  %11 = extractvalue { i64, i64, i64 } %8, 2
  store i64 %9, ptr %5, align 8, !tbaa !3
  store i64 %10, ptr %3, align 8, !tbaa !3
  store i64 %11, ptr %4, align 8, !tbaa !3
  %12 = load i64, ptr %3, align 8, !tbaa !3
  call void @llvm.lifetime.end.p0(i64 8, ptr %5) #7
  ret i64 %12
}

; Function Attrs: inlinehint nounwind uwtable
define internal i64 @mbedtls_ct_bool_or(i64 noundef %0, i64 noundef %1) #3 {
  %3 = alloca i64, align 8
  %4 = alloca i64, align 8
  store i64 %0, ptr %3, align 8, !tbaa !3
  store i64 %1, ptr %4, align 8, !tbaa !3
  %5 = load i64, ptr %3, align 8, !tbaa !3
  %6 = load i64, ptr %4, align 8, !tbaa !3
  %7 = or i64 %5, %6
  ret i64 %7
}

; Function Attrs: inlinehint nounwind uwtable
define internal i64 @mbedtls_ct_bool(i64 noundef %0) #3 {
  %2 = alloca i64, align 8
  %3 = alloca i64, align 8
  store i64 %0, ptr %2, align 8, !tbaa !3
  call void @llvm.lifetime.start.p0(i64 8, ptr %3) #7
  %4 = load i64, ptr %2, align 8, !tbaa !3
  %5 = call i64 asm sideeffect "mov  $1, $0                                \0A\09neg  $0                                      \0A\09or   $1, $0                                \0A\09sar  $$63, $0                                 \0A\09", "=&{ax},{di},~{dirflag},~{fpsr},~{flags}"(i64 %4) #7, !srcloc !17
  store i64 %5, ptr %3, align 8, !tbaa !3
  %6 = load i64, ptr %3, align 8, !tbaa !3
  call void @llvm.lifetime.end.p0(i64 8, ptr %3) #7
  ret i64 %6
}

; Function Attrs: inlinehint nounwind uwtable
define internal i64 @mbedtls_ct_compiler_opaque(i64 noundef %0) #3 {
  %2 = alloca i64, align 8
  store i64 %0, ptr %2, align 8, !tbaa !3
  %3 = load i64, ptr %2, align 8, !tbaa !3
  %4 = call i64 asm sideeffect "", "=r,0,~{dirflag},~{fpsr},~{flags}"(i64 %3) #7, !srcloc !16
  store i64 %4, ptr %2, align 8, !tbaa !3
  %5 = load i64, ptr %2, align 8, !tbaa !3
  ret i64 %5
}

; Function Attrs: inlinehint nounwind uwtable
define internal i64 @mbedtls_ct_uint_ge(i64 noundef %0, i64 noundef %1) #3 {
  %3 = alloca i64, align 8
  %4 = alloca i64, align 8
  store i64 %0, ptr %3, align 8, !tbaa !3
  store i64 %1, ptr %4, align 8, !tbaa !3
  %5 = load i64, ptr %3, align 8, !tbaa !3
  %6 = load i64, ptr %4, align 8, !tbaa !3
  %7 = call i64 @mbedtls_ct_uint_lt(i64 noundef %5, i64 noundef %6)
  %8 = xor i64 %7, -1
  ret i64 %8
}

; Function Attrs: nounwind uwtable
define hidden i64 @mbedtls_mpi_core_uint_le_mpi(i64 noundef %0, ptr noundef %1, i64 noundef %2) #0 {
  %4 = alloca i64, align 8
  %5 = alloca ptr, align 8
  %6 = alloca i64, align 8
  %7 = alloca i64, align 8
  %8 = alloca i64, align 8
  %9 = alloca i64, align 8
  store i64 %0, ptr %4, align 8, !tbaa !3
  store ptr %1, ptr %5, align 8, !tbaa !7
  store i64 %2, ptr %6, align 8, !tbaa !3
  call void @llvm.lifetime.start.p0(i64 8, ptr %7) #7
  %10 = load ptr, ptr %5, align 8, !tbaa !7
  %11 = getelementptr inbounds i64, ptr %10, i64 0
  %12 = load i64, ptr %11, align 8, !tbaa !3
  %13 = load i64, ptr %4, align 8, !tbaa !3
  %14 = call i64 @mbedtls_ct_uint_ge(i64 noundef %12, i64 noundef %13)
  store i64 %14, ptr %7, align 8, !tbaa !3
  call void @llvm.lifetime.start.p0(i64 8, ptr %8) #7
  %15 = call i64 @mbedtls_ct_compiler_opaque(i64 noundef 0)
  store i64 %15, ptr %8, align 8, !tbaa !3
  call void @llvm.lifetime.start.p0(i64 8, ptr %9) #7
  store i64 1, ptr %9, align 8, !tbaa !3
  br label %16

16:                                               ; preds = %29, %3
  %17 = load i64, ptr %9, align 8, !tbaa !3
  %18 = load i64, ptr %6, align 8, !tbaa !3
  %19 = icmp ult i64 %17, %18
  br i1 %19, label %21, label %20

20:                                               ; preds = %16
  call void @llvm.lifetime.end.p0(i64 8, ptr %9) #7
  br label %32

21:                                               ; preds = %16
  %22 = load i64, ptr %8, align 8, !tbaa !3
  %23 = load ptr, ptr %5, align 8, !tbaa !7
  %24 = load i64, ptr %9, align 8, !tbaa !3
  %25 = getelementptr inbounds nuw i64, ptr %23, i64 %24
  %26 = load i64, ptr %25, align 8, !tbaa !3
  %27 = call i64 @mbedtls_ct_bool(i64 noundef %26)
  %28 = call i64 @mbedtls_ct_bool_or(i64 noundef %22, i64 noundef %27)
  store i64 %28, ptr %8, align 8, !tbaa !3
  br label %29

29:                                               ; preds = %21
  %30 = load i64, ptr %9, align 8, !tbaa !3
  %31 = add i64 %30, 1
  store i64 %31, ptr %9, align 8, !tbaa !3
  br label %16, !llvm.loop !15

32:                                               ; preds = %20
  %33 = load i64, ptr %8, align 8, !tbaa !3
  %34 = load i64, ptr %7, align 8, !tbaa !3
  %35 = call i64 @mbedtls_ct_bool_or(i64 noundef %33, i64 noundef %34)
  call void @llvm.lifetime.end.p0(i64 8, ptr %8) #7
  call void @llvm.lifetime.end.p0(i64 8, ptr %7) #7
  ret i64 %35
}