; Function Attrs: nounwind uwtable
define hidden i64 @mbedtls_mpi_core_uint_le_mpi(i64 noundef %0, ptr noundef readonly captures(none) %1, i64 noundef %2) local_unnamed_addr #5 {
  %4 = load i64, ptr %1, align 8, !tbaa !3
  %5 = tail call { i64, i64, i64 } asm sideeffect "mov $1, $0                                 \0A\09xor $2, $0                                 \0A\09sub $2, $1                                 \0A\09and $0, $2                                 \0A\09not $0                                       \0A\09and $0, $1                                 \0A\09or $2, $1                                  \0A\09sar $$63, $1                                  \0A\09", "=&{ax},=&{di},=&{si},1,2,~{dirflag},~{fpsr},~{flags}"(i64 %4, i64 %0) #10, !srcloc !10
  %6 = tail call i64 asm sideeffect "", "=r,0,~{dirflag},~{fpsr},~{flags}"(i64 0) #10, !srcloc !11
  %7 = icmp ugt i64 %2, 1
  br i1 %7, label %.lr.ph, label %._crit_edge

._crit_edge:                                      ; preds = %.lr.ph, %3
  %.09.lcssa = phi i64 [ %6, %3 ], [ %14, %.lr.ph ]
  %8 = extractvalue { i64, i64, i64 } %5, 1
  %9 = xor i64 %8, -1
  %10 = or i64 %.09.lcssa, %9
  ret i64 %10

.lr.ph:                                           ; preds = %3, %.lr.ph
  %.011 = phi i64 [ %15, %.lr.ph ], [ 1, %3 ]
  %.0910 = phi i64 [ %14, %.lr.ph ], [ %6, %3 ]
  %11 = getelementptr inbounds nuw i64, ptr %1, i64 %.011
  %12 = load i64, ptr %11, align 8, !tbaa !3
  %13 = tail call i64 asm sideeffect "mov  $1, $0                                \0A\09neg  $0                                      \0A\09or   $1, $0                                \0A\09sar  $$63, $0                                 \0A\09", "=&{ax},{di},~{dirflag},~{fpsr},~{flags}"(i64 %12) #10, !srcloc !12
  %14 = or i64 %13, %.0910
  %15 = add nuw i64 %.011, 1
  %exitcond.not = icmp eq i64 %15, %2
  br i1 %exitcond.not, label %._crit_edge, label %.lr.ph, !llvm.loop !13
}